target datalayout = "e-m:e-p270:32:32-p271:32:32-p272:64:64-i64:64-i128:128-f80:128-n8:16:32:64-S128"
target triple = "x86_64-unknown-linux-gnu"

%"class.boost::detail::shared_count" = type { ptr }
%"class.boost::shared_ptr.50" = type { ptr, %"class.boost::detail::shared_count" }
%"class.QuantLib::Array" = type { %"class.std::unique_ptr", i64 }
%"class.std::unique_ptr" = type { %"struct.std::__uniq_ptr_data" }
%"struct.std::__uniq_ptr_data" = type { %"class.std::__uniq_ptr_impl" }
%"class.std::__uniq_ptr_impl" = type { %"class.std::tuple" }
%"class.std::tuple" = type { %"struct.std::_Tuple_impl" }
%"struct.std::_Tuple_impl" = type { %"struct.std::_Head_base.34" }
%"struct.std::_Head_base.34" = type { ptr }
%"class.QuantLib::Constraint" = type { %"class.boost::shared_ptr.48" }
%"class.boost::shared_ptr.48" = type { ptr, %"class.boost::detail::shared_count" }
%"class.QuantLib::FittedBondDiscountCurve::FittingMethod" = type { ptr, i8, ptr, %"class.QuantLib::Array", %"class.QuantLib::Array", %"class.boost::shared_ptr.49", %"class.QuantLib::Array", %"class.QuantLib::Array", i8, i32, double, i32, %"class.boost::shared_ptr.50", %"class.QuantLib::Constraint", double, double }
%"class.boost::shared_ptr.49" = type { ptr, %"class.boost::detail::shared_count" }
%"class.QuantLib::CubicBSplinesFitting" = type <{ %"class.QuantLib::FittedBondDiscountCurve::FittingMethod", %"class.QuantLib::BSpline", i64, i32, [4 x i8] }>
%"class.QuantLib::BSpline" = type { i32, i32, %"class.std::vector.28" }
%"class.std::vector.28" = type { %"struct.std::_Vector_base.29" }
%"struct.std::_Vector_base.29" = type { %"struct.std::_Vector_base<double, std::allocator<double>>::_Vector_impl" }
%"struct.std::_Vector_base<double, std::allocator<double>>::_Vector_impl" = type { %"struct.std::_Vector_base<double, std::allocator<double>>::_Vector_impl_data" }
%"struct.std::_Vector_base<double, std::allocator<double>>::_Vector_impl_data" = type { ptr, ptr, ptr }

; Function Attrs: mustprogress nounwind uwtable
define linkonce_odr noundef nonnull align 8 dereferenceable(8) ptr @_ZNSt10_Head_baseILm0EPdLb0EE7_M_headERKS1_(ptr noundef nonnull align 8 dereferenceable(8) %__b) #5 comdat align 2 {
entry:
  %__b.addr = alloca ptr, align 8
  store ptr %__b, ptr %__b.addr, align 8, !tbaa !3
  %0 = load ptr, ptr %__b.addr, align 8, !tbaa !3
  %_M_head_impl = getelementptr inbounds nuw %"struct.std::_Head_base.34", ptr %0, i32 0, i32 0
  ret ptr %_M_head_impl
}

; Function Attrs: mustprogress nounwind uwtable
define linkonce_odr noundef nonnull align 8 dereferenceable(8) ptr @_ZNSt11_Tuple_implILm0EJPdSt14default_deleteIA_dEEE7_M_headERKS4_(ptr noundef nonnull align 8 dereferenceable(8) %__t) #5 comdat align 2 {
entry:
  %__t.addr = alloca ptr, align 8
  store ptr %__t, ptr %__t.addr, align 8, !tbaa !3
  %0 = load ptr, ptr %__t.addr, align 8, !tbaa !3
  %call = call noundef nonnull align 8 dereferenceable(8) ptr @_ZNSt10_Head_baseILm0EPdLb0EE7_M_headERKS1_(ptr noundef nonnull align 8 dereferenceable(8) %0) #17
  ret ptr %call
}

; Function Attrs: mustprogress nounwind uwtable
define linkonce_odr noundef nonnull align 8 dereferenceable(8) ptr @_ZSt12__get_helperILm0EPdJSt14default_deleteIA_dEEERKT0_RKSt11_Tuple_implIXT_EJS4_DpT1_EE(ptr noundef nonnull align 8 dereferenceable(8) %__t) #5 comdat {
entry:
  %__t.addr = alloca ptr, align 8
  store ptr %__t, ptr %__t.addr, align 8, !tbaa !3
  %0 = load ptr, ptr %__t.addr, align 8, !tbaa !3
  %call = call noundef nonnull align 8 dereferenceable(8) ptr @_ZNSt11_Tuple_implILm0EJPdSt14default_deleteIA_dEEE7_M_headERKS4_(ptr noundef nonnull align 8 dereferenceable(8) %0) #17
  ret ptr %call
}

; Function Attrs: mustprogress nounwind uwtable
define linkonce_odr noundef nonnull align 8 dereferenceable(8) ptr @_ZSt3getILm0EJPdSt14default_deleteIA_dEEERKNSt13tuple_elementIXT_ESt5tupleIJDpT0_EEE4typeERKS8_(ptr noundef nonnull align 8 dereferenceable(8) %__t) #5 comdat {
entry:
  %__t.addr = alloca ptr, align 8
  store ptr %__t, ptr %__t.addr, align 8, !tbaa !3
  %0 = load ptr, ptr %__t.addr, align 8, !tbaa !3
  %call = call noundef nonnull align 8 dereferenceable(8) ptr @_ZSt12__get_helperILm0EPdJSt14default_deleteIA_dEEERKT0_RKSt11_Tuple_implIXT_EJS4_DpT1_EE(ptr noundef nonnull align 8 dereferenceable(8) %0) #17
  ret ptr %call
}

; Function Attrs: mustprogress nounwind uwtable
define linkonce_odr noundef ptr @_ZNKSt15__uniq_ptr_implIdSt14default_deleteIA_dEE6_M_ptrEv(ptr noundef nonnull align 8 dereferenceable(8) %this) #5 comdat align 2 {
entry:
  %this.addr = alloca ptr, align 8
  store ptr %this, ptr %this.addr, align 8, !tbaa !3
  %this1 = load ptr, ptr %this.addr, align 8
  %_M_t = getelementptr inbounds nuw %"class.std::__uniq_ptr_impl", ptr %this1, i32 0, i32 0
  %call = call noundef nonnull align 8 dereferenceable(8) ptr @_ZSt3getILm0EJPdSt14default_deleteIA_dEEERKNSt13tuple_elementIXT_ESt5tupleIJDpT0_EEE4typeERKS8_(ptr noundef nonnull align 8 dereferenceable(8) %_M_t) #17
  %0 = load ptr, ptr %call, align 8, !tbaa !3
  ret ptr %0
}

; Function Attrs: mustprogress nounwind uwtable
define linkonce_odr noundef ptr @_ZNKSt10unique_ptrIA_dSt14default_deleteIS0_EE3getEv(ptr noundef nonnull align 8 dereferenceable(8) %this) #5 comdat align 2 {
entry:
  %this.addr = alloca ptr, align 8
  store ptr %this, ptr %this.addr, align 8, !tbaa !3
  %this1 = load ptr, ptr %this.addr, align 8
  %_M_t = getelementptr inbounds nuw %"class.std::unique_ptr", ptr %this1, i32 0, i32 0
  %call = call noundef ptr @_ZNKSt15__uniq_ptr_implIdSt14default_deleteIA_dEE6_M_ptrEv(ptr noundef nonnull align 8 dereferenceable(8) %_M_t) #17
  ret ptr %call
}

; Function Attrs: inlinehint mustprogress nounwind uwtable
define linkonce_odr noundef double @_ZNK8QuantLib5ArrayixEm(ptr noundef nonnull align 8 dereferenceable(16) %this, i64 noundef %i) #7 comdat align 2 {
entry:
  %this.addr = alloca ptr, align 8
  %i.addr = alloca i64, align 8
  store ptr %this, ptr %this.addr, align 8, !tbaa !3
  store i64 %i, ptr %i.addr, align 8, !tbaa !13
  %this1 = load ptr, ptr %this.addr, align 8
  %data_ = getelementptr inbounds nuw %"class.QuantLib::Array", ptr %this1, i32 0, i32 0
  %call = call noundef ptr @_ZNKSt10unique_ptrIA_dSt14default_deleteIS0_EE3getEv(ptr noundef nonnull align 8 dereferenceable(8) %data_) #17
  %0 = load i64, ptr %i.addr, align 8, !tbaa !13
  %arrayidx = getelementptr inbounds nuw double, ptr %call, i64 %0
  %1 = load double, ptr %arrayidx, align 8, !tbaa !11
  ret double %1
}

; Function Attrs: mustprogress uwtable
define noundef double @_ZNK8QuantLib20CubicBSplinesFitting16discountFunctionERKNS_5ArrayEd(ptr noundef nonnull align 8 dereferenceable(220) %this, ptr noundef nonnull align 8 dereferenceable(16) %x, double noundef %t) unnamed_addr #3 align 2 {
entry:
  %this.addr = alloca ptr, align 8
  %x.addr = alloca ptr, align 8
  %t.addr = alloca double, align 8
  %d = alloca double, align 8
  %i = alloca i64, align 8
  %T = alloca double, align 8
  %sum = alloca double, align 8
  %i3 = alloca i64, align 8
  %coeff = alloca double, align 8
  store ptr %this, ptr %this.addr, align 8, !tbaa !3
  store ptr %x, ptr %x.addr, align 8, !tbaa !3
  store double %t, ptr %t.addr, align 8, !tbaa !11
  %this1 = load ptr, ptr %this.addr, align 8
  call void @llvm.lifetime.start.p0(i64 8, ptr %d) #17
  store double 0.000000e+00, ptr %d, align 8, !tbaa !11
  %constrainAtZero_ = getelementptr inbounds nuw %"class.QuantLib::FittedBondDiscountCurve::FittingMethod", ptr %this1, i32 0, i32 1
  %0 = load i8, ptr %constrainAtZero_, align 8, !tbaa !37, !range !15, !noundef !16
  %loadedv = trunc i8 %0 to i1
  br i1 %loadedv, label %if.else, label %if.then

if.then:                                          ; preds = %entry
  call void @llvm.lifetime.start.p0(i64 8, ptr %i) #17
  store i64 0, ptr %i, align 8, !tbaa !13
  br label %for.cond

for.cond:                                         ; preds = %for.inc, %if.then
  %1 = load i64, ptr %i, align 8, !tbaa !13
  %size_ = getelementptr inbounds nuw %"class.QuantLib::CubicBSplinesFitting", ptr %this1, i32 0, i32 2
  %2 = load i64, ptr %size_, align 8, !tbaa !42
  %cmp = icmp ult i64 %1, %2
  br i1 %cmp, label %for.body, label %for.cond.cleanup

for.cond.cleanup:                                 ; preds = %for.cond
  call void @llvm.lifetime.end.p0(i64 8, ptr %i) #17
  br label %for.end

for.body:                                         ; preds = %for.cond
  %3 = load ptr, ptr %x.addr, align 8, !tbaa !3
  %4 = load i64, ptr %i, align 8, !tbaa !13
  %call = call noundef double @_ZNK8QuantLib5ArrayixEm(ptr noundef nonnull align 8 dereferenceable(16) %3, i64 noundef %4)
  %splines_ = getelementptr inbounds nuw %"class.QuantLib::CubicBSplinesFitting", ptr %this1, i32 0, i32 1
  %5 = load i64, ptr %i, align 8, !tbaa !13
  %conv = trunc i64 %5 to i32
  %6 = load double, ptr %t.addr, align 8, !tbaa !11
  %call2 = call noundef double @_ZNK8QuantLib7BSplineclEjd(ptr noundef nonnull align 8 dereferenceable(32) %splines_, i32 noundef %conv, double noundef %6)
  %7 = load double, ptr %d, align 8, !tbaa !11
  %8 = call double @llvm.fmuladd.f64(double %call, double %call2, double %7)
  store double %8, ptr %d, align 8, !tbaa !11
  br label %for.inc

for.inc:                                          ; preds = %for.body
  %9 = load i64, ptr %i, align 8, !tbaa !13
  %inc = add i64 %9, 1
  store i64 %inc, ptr %i, align 8, !tbaa !13
  br label %for.cond, !llvm.loop !52

for.end:                                          ; preds = %for.cond.cleanup
  br label %if.end39

if.else:                                          ; preds = %entry
  call void @llvm.lifetime.start.p0(i64 8, ptr %T) #17
  store double 0.000000e+00, ptr %T, align 8, !tbaa !11
  call void @llvm.lifetime.start.p0(i64 8, ptr %sum) #17
  store double 0.000000e+00, ptr %sum, align 8, !tbaa !11
  call void @llvm.lifetime.start.p0(i64 8, ptr %i3) #17
  store i64 0, ptr %i3, align 8, !tbaa !13
  br label %for.cond4

for.cond4:                                        ; preds = %for.inc30, %if.else
  %10 = load i64, ptr %i3, align 8, !tbaa !13
  %size_5 = getelementptr inbounds nuw %"class.QuantLib::CubicBSplinesFitting", ptr %this1, i32 0, i32 2
  %11 = load i64, ptr %size_5, align 8, !tbaa !42
  %cmp6 = icmp ult i64 %10, %11
  br i1 %cmp6, label %for.body8, label %for.cond.cleanup7

for.cond.cleanup7:                                ; preds = %for.cond4
  call void @llvm.lifetime.end.p0(i64 8, ptr %i3) #17
  br label %for.end32

for.body8:                                        ; preds = %for.cond4
  %12 = load i64, ptr %i3, align 8, !tbaa !13
  %N_ = getelementptr inbounds nuw %"class.QuantLib::CubicBSplinesFitting", ptr %this1, i32 0, i32 3
  %13 = load i32, ptr %N_, align 8, !tbaa !49
  %conv9 = zext i32 %13 to i64
  %cmp10 = icmp ult i64 %12, %conv9
  br i1 %cmp10, label %if.then11, label %if.else20

if.then11:                                        ; preds = %for.body8
  %14 = load ptr, ptr %x.addr, align 8, !tbaa !3
  %15 = load i64, ptr %i3, align 8, !tbaa !13
  %call12 = call noundef double @_ZNK8QuantLib5ArrayixEm(ptr noundef nonnull align 8 dereferenceable(16) %14, i64 noundef %15)
  %splines_13 = getelementptr inbounds nuw %"class.QuantLib::CubicBSplinesFitting", ptr %this1, i32 0, i32 1
  %16 = load i64, ptr %i3, align 8, !tbaa !13
  %conv14 = trunc i64 %16 to i32
  %17 = load double, ptr %t.addr, align 8, !tbaa !11
  %call15 = call noundef double @_ZNK8QuantLib7BSplineclEjd(ptr noundef nonnull align 8 dereferenceable(32) %splines_13, i32 noundef %conv14, double noundef %17)
  %18 = load double, ptr %d, align 8, !tbaa !11
  %19 = call double @llvm.fmuladd.f64(double %call12, double %call15, double %18)
  store double %19, ptr %d, align 8, !tbaa !11
  %20 = load ptr, ptr %x.addr, align 8, !tbaa !3
  %21 = load i64, ptr %i3, align 8, !tbaa !13
  %call16 = call noundef double @_ZNK8QuantLib5ArrayixEm(ptr noundef nonnull align 8 dereferenceable(16) %20, i64 noundef %21)
  %splines_17 = getelementptr inbounds nuw %"class.QuantLib::CubicBSplinesFitting", ptr %this1, i32 0, i32 1
  %22 = load i64, ptr %i3, align 8, !tbaa !13
  %conv18 = trunc i64 %22 to i32
  %call19 = call noundef double @_ZNK8QuantLib7BSplineclEjd(ptr noundef nonnull align 8 dereferenceable(32) %splines_17, i32 noundef %conv18, double noundef 0.000000e+00)
  %23 = load double, ptr %sum, align 8, !tbaa !11
  %24 = call double @llvm.fmuladd.f64(double %call16, double %call19, double %23)
  store double %24, ptr %sum, align 8, !tbaa !11
  br label %if.end

if.else20:                                        ; preds = %for.body8
  %25 = load ptr, ptr %x.addr, align 8, !tbaa !3
  %26 = load i64, ptr %i3, align 8, !tbaa !13
  %call21 = call noundef double @_ZNK8QuantLib5ArrayixEm(ptr noundef nonnull align 8 dereferenceable(16) %25, i64 noundef %26)
  %splines_22 = getelementptr inbounds nuw %"class.QuantLib::CubicBSplinesFitting", ptr %this1, i32 0, i32 1
  %27 = load i64, ptr %i3, align 8, !tbaa !13
  %add = add i64 %27, 1
  %conv23 = trunc i64 %add to i32
  %28 = load double, ptr %t.addr, align 8, !tbaa !11
  %call24 = call noundef double @_ZNK8QuantLib7BSplineclEjd(ptr noundef nonnull align 8 dereferenceable(32) %splines_22, i32 noundef %conv23, double noundef %28)
  %29 = load double, ptr %d, align 8, !tbaa !11
  %30 = call double @llvm.fmuladd.f64(double %call21, double %call24, double %29)
  store double %30, ptr %d, align 8, !tbaa !11
  %31 = load ptr, ptr %x.addr, align 8, !tbaa !3
  %32 = load i64, ptr %i3, align 8, !tbaa !13
  %call25 = call noundef double @_ZNK8QuantLib5ArrayixEm(ptr noundef nonnull align 8 dereferenceable(16) %31, i64 noundef %32)
  %splines_26 = getelementptr inbounds nuw %"class.QuantLib::CubicBSplinesFitting", ptr %this1, i32 0, i32 1
  %33 = load i64, ptr %i3, align 8, !tbaa !13
  %add27 = add i64 %33, 1
  %conv28 = trunc i64 %add27 to i32
  %call29 = call noundef double @_ZNK8QuantLib7BSplineclEjd(ptr noundef nonnull align 8 dereferenceable(32) %splines_26, i32 noundef %conv28, double noundef 0.000000e+00)
  %34 = load double, ptr %sum, align 8, !tbaa !11
  %35 = call double @llvm.fmuladd.f64(double %call25, double %call29, double %34)
  store double %35, ptr %sum, align 8, !tbaa !11
  br label %if.end

if.end:                                           ; preds = %if.else20, %if.then11
  br label %for.inc30

for.inc30:                                        ; preds = %if.end
  %36 = load i64, ptr %i3, align 8, !tbaa !13
  %inc31 = add i64 %36, 1
  store i64 %inc31, ptr %i3, align 8, !tbaa !13
  br label %for.cond4, !llvm.loop !53

for.end32:                                        ; preds = %for.cond.cleanup7
  call void @llvm.lifetime.start.p0(i64 8, ptr %coeff) #17
  %37 = load double, ptr %sum, align 8, !tbaa !11
  %sub = fsub double 1.000000e+00, %37
  store double %sub, ptr %coeff, align 8, !tbaa !11
  %splines_33 = getelementptr inbounds nuw %"class.QuantLib::CubicBSplinesFitting", ptr %this1, i32 0, i32 1
  %N_34 = getelementptr inbounds nuw %"class.QuantLib::CubicBSplinesFitting", ptr %this1, i32 0, i32 3
  %38 = load i32, ptr %N_34, align 8, !tbaa !49
  %call35 = call noundef double @_ZNK8QuantLib7BSplineclEjd(ptr noundef nonnull align 8 dereferenceable(32) %splines_33, i32 noundef %38, double noundef 0.000000e+00)
  %39 = load double, ptr %coeff, align 8, !tbaa !11
  %div = fdiv double %39, %call35
  store double %div, ptr %coeff, align 8, !tbaa !11
  %40 = load double, ptr %coeff, align 8, !tbaa !11
  %splines_36 = getelementptr inbounds nuw %"class.QuantLib::CubicBSplinesFitting", ptr %this1, i32 0, i32 1
  %N_37 = getelementptr inbounds nuw %"class.QuantLib::CubicBSplinesFitting", ptr %this1, i32 0, i32 3
  %41 = load i32, ptr %N_37, align 8, !tbaa !49
  %42 = load double, ptr %t.addr, align 8, !tbaa !11
  %call38 = call noundef double @_ZNK8QuantLib7BSplineclEjd(ptr noundef nonnull align 8 dereferenceable(32) %splines_36, i32 noundef %41, double noundef %42)
  %43 = load double, ptr %d, align 8, !tbaa !11
  %44 = call double @llvm.fmuladd.f64(double %40, double %call38, double %43)
  store double %44, ptr %d, align 8, !tbaa !11
  call void @llvm.lifetime.end.p0(i64 8, ptr %coeff) #17
  call void @llvm.lifetime.end.p0(i64 8, ptr %sum) #17
  call void @llvm.lifetime.end.p0(i64 8, ptr %T) #17
  br label %if.end39

if.end39:                                         ; preds = %for.end32, %for.end
  %45 = load double, ptr %d, align 8, !tbaa !11
  call void @llvm.lifetime.end.p0(i64 8, ptr %d) #17
  ret double %45
}