; Function Attrs: mustprogress uwtable
define noundef double @_ZNK8QuantLib20CubicBSplinesFitting16discountFunctionERKNS_5ArrayEd(ptr noundef nonnull align 8 dereferenceable(220) %this, ptr nocapture noundef nonnull readonly align 8 dereferenceable(16) %x, double noundef %t) unnamed_addr #3 align 2 {
entry:
  %constrainAtZero_ = getelementptr inbounds nuw i8, ptr %this, i64 8
  %0 = load i8, ptr %constrainAtZero_, align 8, !tbaa !41, !range !42, !noundef !43
  %loadedv = trunc nuw i8 %0 to i1
  %size_5 = getelementptr inbounds nuw i8, ptr %this, i64 208
  %1 = load i64, ptr %size_5, align 8, !tbaa !63
  %cmp635.not = icmp eq i64 %1, 0
  br i1 %loadedv, label %for.cond4.preheader, label %for.cond.preheader

for.cond.preheader:                               ; preds = %entry
  br i1 %cmp635.not, label %if.end39, label %for.body.lr.ph

for.body.lr.ph:                                   ; preds = %for.cond.preheader
  %splines_ = getelementptr inbounds nuw i8, ptr %this, i64 176
  br label %for.body

for.cond4.preheader:                              ; preds = %entry
  br i1 %cmp635.not, label %for.cond.cleanup7, label %for.body8.lr.ph

for.body8.lr.ph:                                  ; preds = %for.cond4.preheader
  %N_ = getelementptr inbounds nuw i8, ptr %this, i64 216
  %splines_22 = getelementptr inbounds nuw i8, ptr %this, i64 176
  br label %for.body8

for.body:                                         ; preds = %for.body.lr.ph, %for.body
  %d.034 = phi double [ 0.000000e+00, %for.body.lr.ph ], [ %4, %for.body ]
  %i.033 = phi i64 [ 0, %for.body.lr.ph ], [ %inc, %for.body ]
  %2 = load ptr, ptr %x, align 8, !tbaa !28
  %arrayidx.i = getelementptr inbounds nuw double, ptr %2, i64 %i.033
  %3 = load double, ptr %arrayidx.i, align 8, !tbaa !49
  %conv = trunc i64 %i.033 to i32
  %call2 = tail call noundef double @_ZNK8QuantLib7BSplineclEjd(ptr noundef nonnull align 8 dereferenceable(32) %splines_, i32 noundef %conv, double noundef %t)
  %4 = tail call double @llvm.fmuladd.f64(double %3, double %call2, double %d.034)
  %inc = add nuw i64 %i.033, 1
  %5 = load i64, ptr %size_5, align 8, !tbaa !63
  %cmp = icmp ult i64 %inc, %5
  br i1 %cmp, label %for.body, label %if.end39, !llvm.loop !75

for.cond.cleanup7:                                ; preds = %for.body8, %for.cond4.preheader
  %sum.0.lcssa = phi double [ 0.000000e+00, %for.cond4.preheader ], [ %15, %for.body8 ]
  %d.2.lcssa = phi double [ 0.000000e+00, %for.cond4.preheader ], [ %12, %for.body8 ]
  %sub = fsub double 1.000000e+00, %sum.0.lcssa
  %splines_33 = getelementptr inbounds nuw i8, ptr %this, i64 176
  %N_34 = getelementptr inbounds nuw i8, ptr %this, i64 216
  %6 = load i32, ptr %N_34, align 8, !tbaa !69
  %call35 = tail call noundef double @_ZNK8QuantLib7BSplineclEjd(ptr noundef nonnull align 8 dereferenceable(32) %splines_33, i32 noundef %6, double noundef 0.000000e+00)
  %div = fdiv double %sub, %call35
  %7 = load i32, ptr %N_34, align 8, !tbaa !69
  %call38 = tail call noundef double @_ZNK8QuantLib7BSplineclEjd(ptr noundef nonnull align 8 dereferenceable(32) %splines_33, i32 noundef %7, double noundef %t)
  %8 = tail call double @llvm.fmuladd.f64(double %div, double %call38, double %d.2.lcssa)
  br label %if.end39

for.body8:                                        ; preds = %for.body8.lr.ph, %for.body8
  %d.238 = phi double [ 0.000000e+00, %for.body8.lr.ph ], [ %12, %for.body8 ]
  %i3.037 = phi i64 [ 0, %for.body8.lr.ph ], [ %inc31, %for.body8 ]
  %sum.036 = phi double [ 0.000000e+00, %for.body8.lr.ph ], [ %15, %for.body8 ]
  %9 = load i32, ptr %N_, align 8, !tbaa !69
  %conv9 = zext i32 %9 to i64
  %cmp10 = icmp uge i64 %i3.037, %conv9
  %10 = load ptr, ptr %x, align 8, !tbaa !28
  %arrayidx.i28 = getelementptr inbounds nuw double, ptr %10, i64 %i3.037
  %11 = load double, ptr %arrayidx.i28, align 8, !tbaa !49
  %conv14 = trunc i64 %i3.037 to i32
  %conv23 = zext i1 %cmp10 to i32
  %conv14.sink41 = add i32 %conv14, %conv23
  %call15 = tail call noundef double @_ZNK8QuantLib7BSplineclEjd(ptr noundef nonnull align 8 dereferenceable(32) %splines_22, i32 noundef %conv14.sink41, double noundef %t)
  %12 = tail call double @llvm.fmuladd.f64(double %11, double %call15, double %d.238)
  %13 = load ptr, ptr %x, align 8, !tbaa !28
  %arrayidx.i29 = getelementptr inbounds nuw double, ptr %13, i64 %i3.037
  %14 = load double, ptr %arrayidx.i29, align 8, !tbaa !49
  %call19 = tail call noundef double @_ZNK8QuantLib7BSplineclEjd(ptr noundef nonnull align 8 dereferenceable(32) %splines_22, i32 noundef %conv14.sink41, double noundef 0.000000e+00)
  %15 = tail call double @llvm.fmuladd.f64(double %14, double %call19, double %sum.036)
  %inc31 = add nuw i64 %i3.037, 1
  %16 = load i64, ptr %size_5, align 8, !tbaa !63
  %cmp6 = icmp ult i64 %inc31, %16
  br i1 %cmp6, label %for.body8, label %for.cond.cleanup7, !llvm.loop !76

if.end39:                                         ; preds = %for.body, %for.cond.preheader, %for.cond.cleanup7
  %d.1 = phi double [ %8, %for.cond.cleanup7 ], [ 0.000000e+00, %for.cond.preheader ], [ %4, %for.body ]
  ret double %d.1
}